target datalayout = "e-m:e-p270:32:32-p271:32:32-p272:64:64-i64:64-i128:128-f80:128-n8:16:32:64-S128"
target triple = "x86_64-pc-linux-gnu"

; Function Attrs: inlinehint mustprogress nounwind uwtable
define internal noundef zeroext i1 @_ZN12_GLOBAL__N_19ISNUMERICEc(i8 noundef signext %0) #2 {
  %2 = alloca i8, align 1
  store i8 %0, ptr %2, align 1, !tbaa !23
  %3 = load i8, ptr %2, align 1, !tbaa !23
  %4 = sext i8 %3 to i32
  %5 = icmp sge i32 %4, 48
  br i1 %5, label %6, label %10

6:                                                ; preds = %1
  %7 = load i8, ptr %2, align 1, !tbaa !23
  %8 = sext i8 %7 to i32
  %9 = icmp sle i32 %8, 57
  br label %10

10:                                               ; preds = %6, %1
  %11 = phi i1 [ false, %1 ], [ %9, %6 ]
  ret i1 %11
}

; Function Attrs: mustprogress uwtable
define internal noundef zeroext i1 @_ZN12_GLOBAL__N_17_isTKeyEPKci(ptr noundef %0, i32 noundef %1) #1 {
  %3 = alloca i1, align 1
  %4 = alloca ptr, align 8
  %5 = alloca i32, align 4
  store ptr %0, ptr %4, align 8, !tbaa !17
  store i32 %1, ptr %5, align 4, !tbaa !14
  %6 = load i32, ptr %5, align 4, !tbaa !14
  %7 = icmp slt i32 %6, 0
  br i1 %7, label %8, label %12

8:                                                ; preds = %2
  %9 = load ptr, ptr %4, align 8, !tbaa !17
  %10 = call i64 @strlen(ptr noundef %9) #15
  %11 = trunc i64 %10 to i32
  store i32 %11, ptr %5, align 4, !tbaa !14
  br label %12

12:                                               ; preds = %8, %2
  %13 = load i32, ptr %5, align 4, !tbaa !14
  %14 = icmp eq i32 %13, 2
  br i1 %14, label %15, label %26

15:                                               ; preds = %12
  %16 = load ptr, ptr %4, align 8, !tbaa !17
  %17 = load i8, ptr %16, align 1, !tbaa !23
  %18 = call noundef signext i8 @uprv_isASCIILetter_77(i8 noundef signext %17)
  %19 = icmp ne i8 %18, 0
  br i1 %19, label %20, label %26

20:                                               ; preds = %15
  %21 = load ptr, ptr %4, align 8, !tbaa !17
  %22 = getelementptr inbounds i8, ptr %21, i64 1
  %23 = load i8, ptr %22, align 1, !tbaa !23
  %24 = call noundef zeroext i1 @_ZN12_GLOBAL__N_19ISNUMERICEc(i8 noundef signext %23)
  br i1 %24, label %25, label %26

25:                                               ; preds = %20
  store i1 true, ptr %3, align 1
  br label %27

26:                                               ; preds = %20, %15, %12
  store i1 false, ptr %3, align 1
  br label %27

27:                                               ; preds = %26, %25
  %28 = load i1, ptr %3, align 1
  ret i1 %28
}

; Function Attrs: mustprogress uwtable
define noundef ptr @_Z21ultag_getTKeyStart_77PKc(ptr noundef %0) #1 {
  %2 = alloca ptr, align 8
  %3 = alloca ptr, align 8
  %4 = alloca ptr, align 8
  %5 = alloca ptr, align 8
  %6 = alloca i32, align 4
  store ptr %0, ptr %3, align 8, !tbaa !17
  call void @llvm.lifetime.start.p0(i64 8, ptr %4) #12
  %7 = load ptr, ptr %3, align 8, !tbaa !17
  store ptr %7, ptr %4, align 8, !tbaa !17
  call void @llvm.lifetime.start.p0(i64 8, ptr %5) #12
  br label %8

8:                                                ; preds = %23, %1
  %9 = load ptr, ptr %4, align 8, !tbaa !17
  %10 = call noundef ptr @strchr(ptr noundef %9, i32 noundef 45) #15
  store ptr %10, ptr %5, align 8, !tbaa !17
  %11 = icmp ne ptr %10, null
  br i1 %11, label %12, label %26

12:                                               ; preds = %8
  %13 = load ptr, ptr %4, align 8, !tbaa !17
  %14 = load ptr, ptr %5, align 8, !tbaa !17
  %15 = load ptr, ptr %4, align 8, !tbaa !17
  %16 = ptrtoint ptr %14 to i64
  %17 = ptrtoint ptr %15 to i64
  %18 = sub i64 %16, %17
  %19 = trunc i64 %18 to i32
  %20 = call noundef zeroext i1 @_ZN12_GLOBAL__N_17_isTKeyEPKci(ptr noundef %13, i32 noundef %19)
  br i1 %20, label %21, label %23

21:                                               ; preds = %12
  %22 = load ptr, ptr %4, align 8, !tbaa !17
  store ptr %22, ptr %2, align 8
  store i32 1, ptr %6, align 4
  br label %32

23:                                               ; preds = %12
  %24 = load ptr, ptr %5, align 8, !tbaa !17
  %25 = getelementptr inbounds nuw i8, ptr %24, i32 1
  store ptr %25, ptr %5, align 8, !tbaa !17
  store ptr %25, ptr %4, align 8, !tbaa !17
  br label %8, !llvm.loop !28

26:                                               ; preds = %8
  %27 = load ptr, ptr %4, align 8, !tbaa !17
  %28 = call noundef zeroext i1 @_ZN12_GLOBAL__N_17_isTKeyEPKci(ptr noundef %27, i32 noundef -1)
  br i1 %28, label %29, label %31

29:                                               ; preds = %26
  %30 = load ptr, ptr %4, align 8, !tbaa !17
  store ptr %30, ptr %2, align 8
  store i32 1, ptr %6, align 4
  br label %32

31:                                               ; preds = %26
  store ptr null, ptr %2, align 8
  store i32 1, ptr %6, align 4
  br label %32

32:                                               ; preds = %31, %29, %21
  call void @llvm.lifetime.end.p0(i64 8, ptr %5) #12
  call void @llvm.lifetime.end.p0(i64 8, ptr %4) #12
  %33 = load ptr, ptr %2, align 8
  ret ptr %33
}