; Function Attrs: mustprogress uwtable
define noundef ptr @_Z21ultag_getTKeyStart_77PKc(ptr noundef %0) local_unnamed_addr #1 {
  %2 = tail call noundef ptr @strchr(ptr noundef nonnull dereferenceable(1) %0, i32 noundef 45) #20
  %.not19 = icmp eq ptr %2, null
  br i1 %.not19, label %._crit_edge, label %.lr.ph

.lr.ph:                                           ; preds = %1, %_ZN12_GLOBAL__N_17_isTKeyEPKci.exit
  %3 = phi ptr [ %23, %_ZN12_GLOBAL__N_17_isTKeyEPKci.exit ], [ %2, %1 ]
  %.020 = phi ptr [ %22, %_ZN12_GLOBAL__N_17_isTKeyEPKci.exit ], [ %0, %1 ]
  %4 = ptrtoint ptr %3 to i64
  %5 = ptrtoint ptr %.020 to i64
  %6 = sub i64 %4, %5
  %7 = trunc i64 %6 to i32
  %8 = icmp slt i32 %7, 0
  br i1 %8, label %9, label %12

9:                                                ; preds = %.lr.ph
  %10 = tail call i64 @strlen(ptr noundef nonnull readonly dereferenceable(1) %.020) #20
  %11 = trunc i64 %10 to i32
  br label %12

12:                                               ; preds = %9, %.lr.ph
  %.0.i = phi i32 [ %11, %9 ], [ %7, %.lr.ph ]
  %13 = icmp eq i32 %.0.i, 2
  br i1 %13, label %14, label %_ZN12_GLOBAL__N_17_isTKeyEPKci.exit

14:                                               ; preds = %12
  %15 = load i8, ptr %.020, align 1, !tbaa !15
  %16 = tail call noundef signext i8 @uprv_isASCIILetter_77(i8 noundef signext %15)
  %.not.i = icmp eq i8 %16, 0
  br i1 %.not.i, label %_ZN12_GLOBAL__N_17_isTKeyEPKci.exit, label %17

17:                                               ; preds = %14
  %18 = getelementptr inbounds nuw i8, ptr %.020, i64 1
  %19 = load i8, ptr %18, align 1, !tbaa !15
  %20 = add i8 %19, -48
  %21 = icmp ult i8 %20, 10
  br i1 %21, label %_ZN12_GLOBAL__N_17_isTKeyEPKci.exit15, label %_ZN12_GLOBAL__N_17_isTKeyEPKci.exit

_ZN12_GLOBAL__N_17_isTKeyEPKci.exit:              ; preds = %17, %14, %12
  %22 = getelementptr inbounds nuw i8, ptr %3, i64 1
  %23 = tail call noundef ptr @strchr(ptr noundef nonnull dereferenceable(1) %22, i32 noundef 45) #20
  %.not = icmp eq ptr %23, null
  br i1 %.not, label %._crit_edge, label %.lr.ph, !llvm.loop !21

._crit_edge:                                      ; preds = %_ZN12_GLOBAL__N_17_isTKeyEPKci.exit, %1
  %.0.lcssa = phi ptr [ %0, %1 ], [ %22, %_ZN12_GLOBAL__N_17_isTKeyEPKci.exit ]
  %24 = tail call i64 @strlen(ptr noundef nonnull readonly dereferenceable(1) %.0.lcssa) #20
  %25 = and i64 %24, 4294967295
  %26 = icmp eq i64 %25, 2
  br i1 %26, label %27, label %_ZN12_GLOBAL__N_17_isTKeyEPKci.exit15

27:                                               ; preds = %._crit_edge
  %28 = load i8, ptr %.0.lcssa, align 1, !tbaa !15
  %29 = tail call noundef signext i8 @uprv_isASCIILetter_77(i8 noundef signext %28)
  %.not.i14 = icmp eq i8 %29, 0
  br i1 %.not.i14, label %_ZN12_GLOBAL__N_17_isTKeyEPKci.exit15, label %30

30:                                               ; preds = %27
  %31 = getelementptr inbounds nuw i8, ptr %.0.lcssa, i64 1
  %32 = load i8, ptr %31, align 1, !tbaa !15
  %33 = add i8 %32, -48
  %34 = icmp ult i8 %33, 10
  %spec.select = select i1 %34, ptr %.0.lcssa, ptr null
  br label %_ZN12_GLOBAL__N_17_isTKeyEPKci.exit15

_ZN12_GLOBAL__N_17_isTKeyEPKci.exit15:            ; preds = %17, %30, %._crit_edge, %27
  %.010 = phi ptr [ null, %._crit_edge ], [ null, %27 ], [ %spec.select, %30 ], [ %.020, %17 ]
  ret ptr %.010
}